target datalayout = "e-m:e-p270:32:32-p271:32:32-p272:64:64-i64:64-i128:128-f80:128-n8:16:32:64-S128"
target triple = "x86_64-pc-linux-gnu"

%struct.Node = type { i32 }
%union.ListCell = type { ptr }
%struct.Constraint = type { i32, i32, ptr, i8, i8, i8, i8, i8, i8, ptr, ptr, i8, i8, i8, ptr, i8, ptr, ptr, ptr, ptr, ptr, i8, ptr, ptr, ptr, ptr, ptr, i8, i8, i8, i8, i8, ptr, ptr, i32, i32 }

; Function Attrs: inlinehint nounwind uwtable
define internal ptr @newNode(i64 noundef %0, i32 noundef %1) #2 {
  %3 = alloca i64, align 8
  %4 = alloca i32, align 4
  %5 = alloca ptr, align 8
  store i64 %0, ptr %3, align 8
  store i32 %1, ptr %4, align 4
  call void @llvm.lifetime.start.p0(i64 8, ptr %5) #6
  %6 = load i64, ptr %3, align 8
  %7 = call ptr @palloc0(i64 noundef %6)
  store ptr %7, ptr %5, align 8
  %8 = load i32, ptr %4, align 4
  %9 = load ptr, ptr %5, align 8
  %10 = getelementptr inbounds nuw %struct.Node, ptr %9, i32 0, i32 0
  store i32 %8, ptr %10, align 4
  %11 = load ptr, ptr %5, align 8
  call void @llvm.lifetime.end.p0(i64 8, ptr %5) #6
  ret ptr %11
}

; Function Attrs: nounwind uwtable
define dso_local ptr @makeNotNullConstraint(ptr noundef %0) #0 {
  %2 = alloca ptr, align 8
  %3 = alloca ptr, align 8
  %4 = alloca %union.ListCell, align 8
  store ptr %0, ptr %2, align 8
  call void @llvm.lifetime.start.p0(i64 8, ptr %3) #6
  %5 = call ptr @newNode(i64 noundef 184, i32 noundef 160)
  store ptr %5, ptr %3, align 8
  %6 = load ptr, ptr %3, align 8
  %7 = getelementptr inbounds nuw %struct.Constraint, ptr %6, i32 0, i32 1
  store i32 1, ptr %7, align 4
  %8 = load ptr, ptr %3, align 8
  %9 = getelementptr inbounds nuw %struct.Constraint, ptr %8, i32 0, i32 2
  store ptr null, ptr %9, align 8
  %10 = load ptr, ptr %3, align 8
  %11 = getelementptr inbounds nuw %struct.Constraint, ptr %10, i32 0, i32 8
  store i8 0, ptr %11, align 1
  %12 = load ptr, ptr %3, align 8
  %13 = getelementptr inbounds nuw %struct.Constraint, ptr %12, i32 0, i32 3
  store i8 0, ptr %13, align 8
  %14 = load ptr, ptr %3, align 8
  %15 = getelementptr inbounds nuw %struct.Constraint, ptr %14, i32 0, i32 4
  store i8 0, ptr %15, align 1
  %16 = load ptr, ptr %3, align 8
  %17 = getelementptr inbounds nuw %struct.Constraint, ptr %16, i32 0, i32 35
  store i32 -1, ptr %17, align 4
  %18 = load ptr, ptr %2, align 8
  store ptr %18, ptr %4, align 8
  %19 = getelementptr inbounds nuw %union.ListCell, ptr %4, i32 0, i32 0
  %20 = load ptr, ptr %19, align 8
  %21 = call ptr @list_make1_impl(i32 noundef 1, ptr %20)
  %22 = load ptr, ptr %3, align 8
  %23 = getelementptr inbounds nuw %struct.Constraint, ptr %22, i32 0, i32 14
  store ptr %21, ptr %23, align 8
  %24 = load ptr, ptr %3, align 8
  %25 = getelementptr inbounds nuw %struct.Constraint, ptr %24, i32 0, i32 5
  store i8 1, ptr %25, align 2
  %26 = load ptr, ptr %3, align 8
  %27 = getelementptr inbounds nuw %struct.Constraint, ptr %26, i32 0, i32 6
  store i8 0, ptr %27, align 1
  %28 = load ptr, ptr %3, align 8
  %29 = getelementptr inbounds nuw %struct.Constraint, ptr %28, i32 0, i32 7
  store i8 1, ptr %29, align 4
  %30 = load ptr, ptr %3, align 8
  call void @llvm.lifetime.end.p0(i64 8, ptr %3) #6
  ret ptr %30
}