; Function Attrs: nounwind uwtable
define dso_local noundef ptr @makeNotNullConstraint(ptr noundef %0) local_unnamed_addr #0 {
  %2 = tail call noundef ptr @palloc0(i64 noundef 184) #7
  store i32 160, ptr %2, align 4
  %3 = getelementptr inbounds nuw i8, ptr %2, i64 4
  store i32 1, ptr %3, align 4
  %4 = getelementptr inbounds nuw i8, ptr %2, i64 8
  store ptr null, ptr %4, align 8
  %5 = getelementptr inbounds nuw i8, ptr %2, i64 21
  store i8 0, ptr %5, align 1
  %6 = getelementptr inbounds nuw i8, ptr %2, i64 16
  store i8 0, ptr %6, align 8
  %7 = getelementptr inbounds nuw i8, ptr %2, i64 17
  store i8 0, ptr %7, align 1
  %8 = getelementptr inbounds nuw i8, ptr %2, i64 180
  store i32 -1, ptr %8, align 4
  %9 = tail call ptr @list_make1_impl(i32 noundef 1, ptr %0) #7
  %10 = getelementptr inbounds nuw i8, ptr %2, i64 48
  store ptr %9, ptr %10, align 8
  %11 = getelementptr inbounds nuw i8, ptr %2, i64 18
  store i8 1, ptr %11, align 2
  %12 = getelementptr inbounds nuw i8, ptr %2, i64 19
  store i8 0, ptr %12, align 1
  %13 = getelementptr inbounds nuw i8, ptr %2, i64 20
  store i8 1, ptr %13, align 4
  ret ptr %2
}